; Function Attrs: cold nounwind optsize uwtable
define internal void @psy_3gpp_end(ptr noundef %0) #0 {
  %2 = getelementptr inbounds nuw i8, ptr %0, i64 72
  %3 = load ptr, ptr %2, align 8, !tbaa !39
  %.not = icmp eq ptr %3, null
  br i1 %.not, label %6, label %4

4:                                                ; preds = %1
  %5 = getelementptr inbounds nuw i8, ptr %3, i64 3616
  tail call void @av_freep(ptr noundef nonnull %5) #11
  br label %6

6:                                                ; preds = %4, %1
  tail call void @av_freep(ptr noundef nonnull %2) #11
  ret void
}